; Function Attrs: mustprogress uwtable
define dso_local void @_ZN3dap4json19JsonCppDeserializerC2ERKNSt7__cxx1112basic_stringIcSt11char_traitsIcESaIcEEE(ptr nocapture noundef nonnull writeonly align 8 dereferenceable(17) %0, ptr noundef nonnull align 8 dereferenceable(32) %1) unnamed_addr #0 align 2 personality ptr @__gxx_personality_v0 {
  store ptr getelementptr inbounds ({ [13 x ptr] }, ptr @_ZTVN3dap4json19JsonCppDeserializerE, i64 0, i32 0, i64 2), ptr %0, align 8
  %3 = tail call noalias noundef nonnull dereferenceable(40) ptr @_Znwm(i64 noundef 40) #19
  invoke void @_ZN3dap4json19JsonCppDeserializer5parseERKNSt7__cxx1112basic_stringIcSt11char_traitsIcESaIcEEE(ptr dead_on_unwind nonnull writable sret(%"class.Json::Value") align 8 %3, ptr noundef nonnull align 8 dereferenceable(32) %1)
          to label %4 unwind label %7

4:                                                ; preds = %2
  %5 = getelementptr inbounds i8, ptr %0, i64 8
  store ptr %3, ptr %5, align 8
  %6 = getelementptr inbounds i8, ptr %0, i64 16
  store i8 1, ptr %6, align 8
  ret void

7:                                                ; preds = %2
  %8 = landingpad { ptr, i32 }
          cleanup
  tail call void @_ZdlPv(ptr noundef nonnull %3) #20
  resume { ptr, i32 } %8
}